target datalayout = "e-m:e-p270:32:32-p271:32:32-p272:64:64-i64:64-i128:128-f80:128-n8:16:32:64-S128"
target triple = "x86_64-unknown-linux-gnu"

%"class.arrow::Status" = type { ptr }
%"class.arrow::Buffer" = type { ptr, i8, i8, ptr, i64, i64, i8, %"class.std::shared_ptr", %"class.std::shared_ptr.2" }
%"class.std::shared_ptr" = type { %"class.std::__shared_ptr" }
%"class.std::__shared_ptr" = type { ptr, %"class.std::__shared_count" }
%"class.std::__shared_count" = type { ptr }
%"class.std::shared_ptr.2" = type { %"class.std::__shared_ptr.3" }
%"class.std::__shared_ptr.3" = type { ptr, %"class.std::__shared_count" }
%"class.std::__cxx11::basic_string" = type { %"struct.std::__cxx11::basic_string<char>::_Alloc_hider", i64, %union.anon }
%"struct.std::__cxx11::basic_string<char>::_Alloc_hider" = type { ptr }
%union.anon = type { i64, [8 x i8] }

@.str.9 = private unnamed_addr constant [7 x i8] c"buffer\00", align 1
@.str.10 = private unnamed_addr constant [10 x i8] c"Negative \00", align 1
@.str.11 = private unnamed_addr constant [14 x i8] c" slice offset\00", align 1
@.str.12 = private unnamed_addr constant [14 x i8] c" slice length\00", align 1
@.str.13 = private unnamed_addr constant [22 x i8] c" slice would overflow\00", align 1
@.str.14 = private unnamed_addr constant [21 x i8] c" slice would exceed \00", align 1
@.str.15 = private unnamed_addr constant [8 x i8] c" length\00", align 1

; Function Attrs: mustprogress nounwind uwtable
define linkonce_odr void @_ZN5arrow6StatusC2Ev(ptr noundef nonnull align 8 dereferenceable(8) %this) unnamed_addr #1 comdat align 2 {
entry:
  %this.addr = alloca ptr, align 8
  store ptr %this, ptr %this.addr, align 8
  %this1 = load ptr, ptr %this.addr, align 8
  %state_ = getelementptr inbounds %"class.arrow::Status", ptr %this1, i32 0, i32 0
  store ptr null, ptr %state_, align 8
  ret void
}

; Function Attrs: mustprogress uwtable
define linkonce_odr void @_ZN5arrow6Status8FromArgsIJRPKcRA21_S2_S4_RA8_S2_EEES0_NS_10StatusCodeEDpOT_(ptr noalias sret(%"class.arrow::Status") align 8 %agg.result, i8 noundef signext %code, ptr noundef nonnull align 8 dereferenceable(8) %args, ptr noundef nonnull align 1 dereferenceable(21) %args1, ptr noundef nonnull align 8 dereferenceable(8) %args3, ptr noundef nonnull align 1 dereferenceable(8) %args5) #0 comdat align 2 personality ptr @__gxx_personality_v0 {
entry:
  %result.ptr = alloca ptr, align 8
  %code.addr = alloca i8, align 1
  %args.addr = alloca ptr, align 8
  %args.addr2 = alloca ptr, align 8
  %args.addr4 = alloca ptr, align 8
  %args.addr6 = alloca ptr, align 8
  %ref.tmp = alloca %"class.std::__cxx11::basic_string", align 8
  %exn.slot = alloca ptr, align 8
  %ehselector.slot = alloca i32, align 4
  store ptr %agg.result, ptr %result.ptr, align 8
  store i8 %code, ptr %code.addr, align 1
  store ptr %args, ptr %args.addr, align 8
  store ptr %args1, ptr %args.addr2, align 8
  store ptr %args3, ptr %args.addr4, align 8
  store ptr %args5, ptr %args.addr6, align 8
  %0 = load i8, ptr %code.addr, align 1
  %1 = load ptr, ptr %args.addr, align 8
  %2 = load ptr, ptr %args.addr2, align 8
  %3 = load ptr, ptr %args.addr4, align 8
  %4 = load ptr, ptr %args.addr6, align 8
  call void @_ZN5arrow4util13StringBuilderIJRPKcRA21_S2_S4_RA8_S2_EEENSt7__cxx1112basic_stringIcSt11char_traitsIcESaIcEEEDpOT_(ptr sret(%"class.std::__cxx11::basic_string") align 8 %ref.tmp, ptr noundef nonnull align 8 dereferenceable(8) %1, ptr noundef nonnull align 1 dereferenceable(21) %2, ptr noundef nonnull align 8 dereferenceable(8) %3, ptr noundef nonnull align 1 dereferenceable(8) %4)
  invoke void @_ZN5arrow6StatusC1ENS_10StatusCodeERKNSt7__cxx1112basic_stringIcSt11char_traitsIcESaIcEEE(ptr noundef nonnull align 8 dereferenceable(8) %agg.result, i8 noundef signext %0, ptr noundef nonnull align 8 dereferenceable(32) %ref.tmp)
          to label %invoke.cont unwind label %lpad

invoke.cont:                                      ; preds = %entry
  call void @_ZNSt7__cxx1112basic_stringIcSt11char_traitsIcESaIcEED1Ev(ptr noundef nonnull align 8 dereferenceable(32) %ref.tmp) #13
  ret void

lpad:                                             ; preds = %entry
  %5 = landingpad { ptr, i32 }
          cleanup
  %6 = extractvalue { ptr, i32 } %5, 0
  store ptr %6, ptr %exn.slot, align 8
  %7 = extractvalue { ptr, i32 } %5, 1
  store i32 %7, ptr %ehselector.slot, align 4
  call void @_ZNSt7__cxx1112basic_stringIcSt11char_traitsIcESaIcEED1Ev(ptr noundef nonnull align 8 dereferenceable(32) %ref.tmp) #13
  br label %eh.resume

eh.resume:                                        ; preds = %lpad
  %exn = load ptr, ptr %exn.slot, align 8
  %sel = load i32, ptr %ehselector.slot, align 4
  %lpad.val = insertvalue { ptr, i32 } poison, ptr %exn, 0
  %lpad.val7 = insertvalue { ptr, i32 } %lpad.val, i32 %sel, 1
  resume { ptr, i32 } %lpad.val7
}

; Function Attrs: mustprogress nounwind uwtable
define internal noundef i32 @_ZL20psnip_safe_int64_addPlll(ptr noundef %res, i64 noundef %a, i64 noundef %b) #1 {
entry:
  %res.addr = alloca ptr, align 8
  %a.addr = alloca i64, align 8
  %b.addr = alloca i64, align 8
  store ptr %res, ptr %res.addr, align 8
  store i64 %a, ptr %a.addr, align 8
  store i64 %b, ptr %b.addr, align 8
  %0 = load i64, ptr %a.addr, align 8
  %1 = load i64, ptr %b.addr, align 8
  %2 = load ptr, ptr %res.addr, align 8
  %3 = call { i64, i1 } @llvm.sadd.with.overflow.i64(i64 %0, i64 %1)
  %4 = extractvalue { i64, i1 } %3, 1
  %5 = extractvalue { i64, i1 } %3, 0
  store i64 %5, ptr %2, align 8
  %lnot = xor i1 %4, true
  %conv = zext i1 %lnot to i32
  ret i32 %conv
}

; Function Attrs: mustprogress nounwind uwtable
define linkonce_odr void @_ZN5arrow6Status2OKEv(ptr noalias sret(%"class.arrow::Status") align 8 %agg.result) #1 comdat align 2 {
entry:
  %result.ptr = alloca ptr, align 8
  store ptr %agg.result, ptr %result.ptr, align 8
  call void @_ZN5arrow6StatusC2Ev(ptr noundef nonnull align 8 dereferenceable(8) %agg.result) #13
  ret void
}

; Function Attrs: mustprogress uwtable
define linkonce_odr void @_ZN5arrow6Status10IndexErrorIJRPKcRA21_S2_S4_RA8_S2_EEES0_DpOT_(ptr noalias sret(%"class.arrow::Status") align 8 %agg.result, ptr noundef nonnull align 8 dereferenceable(8) %args, ptr noundef nonnull align 1 dereferenceable(21) %args1, ptr noundef nonnull align 8 dereferenceable(8) %args3, ptr noundef nonnull align 1 dereferenceable(8) %args5) #0 comdat align 2 {
entry:
  %result.ptr = alloca ptr, align 8
  %args.addr = alloca ptr, align 8
  %args.addr2 = alloca ptr, align 8
  %args.addr4 = alloca ptr, align 8
  %args.addr6 = alloca ptr, align 8
  store ptr %agg.result, ptr %result.ptr, align 8
  store ptr %args, ptr %args.addr, align 8
  store ptr %args1, ptr %args.addr2, align 8
  store ptr %args3, ptr %args.addr4, align 8
  store ptr %args5, ptr %args.addr6, align 8
  %0 = load ptr, ptr %args.addr, align 8
  %1 = load ptr, ptr %args.addr2, align 8
  %2 = load ptr, ptr %args.addr4, align 8
  %3 = load ptr, ptr %args.addr6, align 8
  call void @_ZN5arrow6Status8FromArgsIJRPKcRA21_S2_S4_RA8_S2_EEES0_NS_10StatusCodeEDpOT_(ptr sret(%"class.arrow::Status") align 8 %agg.result, i8 noundef signext 7, ptr noundef nonnull align 8 dereferenceable(8) %0, ptr noundef nonnull align 1 dereferenceable(21) %1, ptr noundef nonnull align 8 dereferenceable(8) %2, ptr noundef nonnull align 1 dereferenceable(8) %3)
  ret void
}

; Function Attrs: mustprogress uwtable
define linkonce_odr void @_ZN5arrow6Status10IndexErrorIJRPKcRA22_S2_EEES0_DpOT_(ptr noalias sret(%"class.arrow::Status") align 8 %agg.result, ptr noundef nonnull align 8 dereferenceable(8) %args, ptr noundef nonnull align 1 dereferenceable(22) %args1) #0 comdat align 2 {
entry:
  %result.ptr = alloca ptr, align 8
  %args.addr = alloca ptr, align 8
  %args.addr2 = alloca ptr, align 8
  store ptr %agg.result, ptr %result.ptr, align 8
  store ptr %args, ptr %args.addr, align 8
  store ptr %args1, ptr %args.addr2, align 8
  %0 = load ptr, ptr %args.addr, align 8
  %1 = load ptr, ptr %args.addr2, align 8
  call void @_ZN5arrow6Status8FromArgsIJRPKcRA22_S2_EEES0_NS_10StatusCodeEDpOT_(ptr sret(%"class.arrow::Status") align 8 %agg.result, i8 noundef signext 7, ptr noundef nonnull align 8 dereferenceable(8) %0, ptr noundef nonnull align 1 dereferenceable(22) %1)
  ret void
}

; Function Attrs: mustprogress uwtable
define internal noundef zeroext i1 @_ZN5arrow8internalL15AddWithOverflowEllPl(i64 noundef %u, i64 noundef %v, ptr noundef %out) #0 {
entry:
  %u.addr = alloca i64, align 8
  %v.addr = alloca i64, align 8
  %out.addr = alloca ptr, align 8
  store i64 %u, ptr %u.addr, align 8
  store i64 %v, ptr %v.addr, align 8
  store ptr %out, ptr %out.addr, align 8
  %0 = load ptr, ptr %out.addr, align 8
  %1 = load i64, ptr %u.addr, align 8
  %2 = load i64, ptr %v.addr, align 8
  %call = call noundef i32 @_ZL20psnip_safe_int64_addPlll(ptr noundef %0, i64 noundef %1, i64 noundef %2)
  %tobool = icmp ne i32 %call, 0
  %lnot = xor i1 %tobool, true
  ret i1 %lnot
}

; Function Attrs: mustprogress uwtable
define linkonce_odr void @_ZN5arrow6Status10IndexErrorIJRA10_KcRPS2_RA14_S2_EEES0_DpOT_(ptr noalias sret(%"class.arrow::Status") align 8 %agg.result, ptr noundef nonnull align 1 dereferenceable(10) %args, ptr noundef nonnull align 8 dereferenceable(8) %args1, ptr noundef nonnull align 1 dereferenceable(14) %args3) #0 comdat align 2 {
entry:
  %result.ptr = alloca ptr, align 8
  %args.addr = alloca ptr, align 8
  %args.addr2 = alloca ptr, align 8
  %args.addr4 = alloca ptr, align 8
  store ptr %agg.result, ptr %result.ptr, align 8
  store ptr %args, ptr %args.addr, align 8
  store ptr %args1, ptr %args.addr2, align 8
  store ptr %args3, ptr %args.addr4, align 8
  %0 = load ptr, ptr %args.addr, align 8
  %1 = load ptr, ptr %args.addr2, align 8
  %2 = load ptr, ptr %args.addr4, align 8
  call void @_ZN5arrow6Status8FromArgsIJRA10_KcRPS2_RA14_S2_EEES0_NS_10StatusCodeEDpOT_(ptr sret(%"class.arrow::Status") align 8 %agg.result, i8 noundef signext 7, ptr noundef nonnull align 1 dereferenceable(10) %0, ptr noundef nonnull align 8 dereferenceable(8) %1, ptr noundef nonnull align 1 dereferenceable(14) %2)
  ret void
}

; Function Attrs: mustprogress uwtable
define internal void @_ZN5arrow8internalL16CheckSliceParamsElllPKc(ptr noalias sret(%"class.arrow::Status") align 8 %agg.result, i64 noundef %object_length, i64 noundef %slice_offset, i64 noundef %slice_length, ptr noundef %object_name) #0 {
entry:
  %result.ptr = alloca ptr, align 8
  %object_length.addr = alloca i64, align 8
  %slice_offset.addr = alloca i64, align 8
  %slice_length.addr = alloca i64, align 8
  %object_name.addr = alloca ptr, align 8
  %offset_plus_length = alloca i64, align 8
  store ptr %agg.result, ptr %result.ptr, align 8
  store i64 %object_length, ptr %object_length.addr, align 8
  store i64 %slice_offset, ptr %slice_offset.addr, align 8
  store i64 %slice_length, ptr %slice_length.addr, align 8
  store ptr %object_name, ptr %object_name.addr, align 8
  %0 = load i64, ptr %slice_offset.addr, align 8
  %cmp = icmp slt i64 %0, 0
  %lnot = xor i1 %cmp, true
  %lnot1 = xor i1 %lnot, true
  br i1 %lnot1, label %if.then, label %if.end

if.then:                                          ; preds = %entry
  call void @_ZN5arrow6Status10IndexErrorIJRA10_KcRPS2_RA14_S2_EEES0_DpOT_(ptr sret(%"class.arrow::Status") align 8 %agg.result, ptr noundef nonnull align 1 dereferenceable(10) @.str.10, ptr noundef nonnull align 8 dereferenceable(8) %object_name.addr, ptr noundef nonnull align 1 dereferenceable(14) @.str.11)
  br label %return

if.end:                                           ; preds = %entry
  %1 = load i64, ptr %slice_length.addr, align 8
  %cmp2 = icmp slt i64 %1, 0
  %lnot3 = xor i1 %cmp2, true
  %lnot4 = xor i1 %lnot3, true
  br i1 %lnot4, label %if.then5, label %if.end6

if.then5:                                         ; preds = %if.end
  call void @_ZN5arrow6Status10IndexErrorIJRA10_KcRPS2_RA14_S2_EEES0_DpOT_(ptr sret(%"class.arrow::Status") align 8 %agg.result, ptr noundef nonnull align 1 dereferenceable(10) @.str.10, ptr noundef nonnull align 8 dereferenceable(8) %object_name.addr, ptr noundef nonnull align 1 dereferenceable(14) @.str.12)
  br label %return

if.end6:                                          ; preds = %if.end
  %2 = load i64, ptr %slice_offset.addr, align 8
  %3 = load i64, ptr %slice_length.addr, align 8
  %call = call noundef zeroext i1 @_ZN5arrow8internalL15AddWithOverflowEllPl(i64 noundef %2, i64 noundef %3, ptr noundef %offset_plus_length)
  %lnot7 = xor i1 %call, true
  %lnot8 = xor i1 %lnot7, true
  br i1 %lnot8, label %if.then9, label %if.end10

if.then9:                                         ; preds = %if.end6
  call void @_ZN5arrow6Status10IndexErrorIJRPKcRA22_S2_EEES0_DpOT_(ptr sret(%"class.arrow::Status") align 8 %agg.result, ptr noundef nonnull align 8 dereferenceable(8) %object_name.addr, ptr noundef nonnull align 1 dereferenceable(22) @.str.13)
  br label %return

if.end10:                                         ; preds = %if.end6
  %4 = load i64, ptr %offset_plus_length, align 8
  %5 = load i64, ptr %object_length.addr, align 8
  %cmp11 = icmp sgt i64 %4, %5
  %lnot12 = xor i1 %cmp11, true
  %lnot13 = xor i1 %lnot12, true
  br i1 %lnot13, label %if.then14, label %if.end15

if.then14:                                        ; preds = %if.end10
  call void @_ZN5arrow6Status10IndexErrorIJRPKcRA21_S2_S4_RA8_S2_EEES0_DpOT_(ptr sret(%"class.arrow::Status") align 8 %agg.result, ptr noundef nonnull align 8 dereferenceable(8) %object_name.addr, ptr noundef nonnull align 1 dereferenceable(21) @.str.14, ptr noundef nonnull align 8 dereferenceable(8) %object_name.addr, ptr noundef nonnull align 1 dereferenceable(8) @.str.15)
  br label %return

if.end15:                                         ; preds = %if.end10
  call void @_ZN5arrow6Status2OKEv(ptr sret(%"class.arrow::Status") align 8 %agg.result)
  br label %return

return:                                           ; preds = %if.end15, %if.then14, %if.then9, %if.then5, %if.then
  ret void
}

; Function Attrs: mustprogress nounwind uwtable
define linkonce_odr noundef i64 @_ZNK5arrow6Buffer4sizeEv(ptr noundef nonnull align 8 dereferenceable(80) %this) #1 comdat align 2 {
entry:
  %this.addr = alloca ptr, align 8
  store ptr %this, ptr %this.addr, align 8
  %this1 = load ptr, ptr %this.addr, align 8
  %size_ = getelementptr inbounds %"class.arrow::Buffer", ptr %this1, i32 0, i32 4
  %0 = load i64, ptr %size_, align 8
  ret i64 %0
}

; Function Attrs: mustprogress uwtable
define internal void @_ZN5arrow12_GLOBAL__N_116CheckBufferSliceERKNS_6BufferEll(ptr noalias sret(%"class.arrow::Status") align 8 %agg.result, ptr noundef nonnull align 8 dereferenceable(80) %buffer, i64 noundef %offset, i64 noundef %length) #0 {
entry:
  %result.ptr = alloca ptr, align 8
  %buffer.addr = alloca ptr, align 8
  %offset.addr = alloca i64, align 8
  %length.addr = alloca i64, align 8
  store ptr %agg.result, ptr %result.ptr, align 8
  store ptr %buffer, ptr %buffer.addr, align 8
  store i64 %offset, ptr %offset.addr, align 8
  store i64 %length, ptr %length.addr, align 8
  %0 = load ptr, ptr %buffer.addr, align 8
  %call = call noundef i64 @_ZNK5arrow6Buffer4sizeEv(ptr noundef nonnull align 8 dereferenceable(80) %0)
  %1 = load i64, ptr %offset.addr, align 8
  %2 = load i64, ptr %length.addr, align 8
  call void @_ZN5arrow8internalL16CheckSliceParamsElllPKc(ptr sret(%"class.arrow::Status") align 8 %agg.result, i64 noundef %call, i64 noundef %1, i64 noundef %2, ptr noundef @.str.9)
  ret void
}