; Function Attrs: mustprogress uwtable
define internal fastcc void @_ZN5arrow12_GLOBAL__N_116CheckBufferSliceERKNS_6BufferEll(ptr noalias align 8 %agg.result, i64 %buffer.24.val, i64 noundef %offset, i64 noundef %length) unnamed_addr #0 personality ptr @__gxx_personality_v0 {
entry:
  %ref.tmp.i.i.i = alloca %"class.std::__cxx11::basic_string", align 8
  %object_name.addr.i = alloca ptr, align 8
  tail call void @llvm.experimental.noalias.scope.decl(metadata !33)
  call void @llvm.lifetime.start.p0(i64 8, ptr nonnull %object_name.addr.i)
  store ptr @.str.9, ptr %object_name.addr.i, align 8, !noalias !33
  %cmp.i = icmp slt i64 %offset, 0
  br i1 %cmp.i, label %if.then.i, label %if.end.i

if.then.i:                                        ; preds = %entry
  call void @_ZN5arrow6Status8FromArgsIJRA10_KcRPS2_RA14_S2_EEES0_NS_10StatusCodeEDpOT_(ptr sret(%"class.arrow::Status") align 8 %agg.result, i8 noundef signext 7, ptr noundef nonnull align 1 dereferenceable(10) @.str.10, ptr noundef nonnull align 8 dereferenceable(8) %object_name.addr.i, ptr noundef nonnull align 1 dereferenceable(14) @.str.11)
  br label %_ZN5arrow8internalL16CheckSliceParamsElllPKc.exit

if.end.i:                                         ; preds = %entry
  %cmp2.i = icmp slt i64 %length, 0
  br i1 %cmp2.i, label %if.then5.i, label %if.end6.i

if.then5.i:                                       ; preds = %if.end.i
  call void @_ZN5arrow6Status8FromArgsIJRA10_KcRPS2_RA14_S2_EEES0_NS_10StatusCodeEDpOT_(ptr sret(%"class.arrow::Status") align 8 %agg.result, i8 noundef signext 7, ptr noundef nonnull align 1 dereferenceable(10) @.str.10, ptr noundef nonnull align 8 dereferenceable(8) %object_name.addr.i, ptr noundef nonnull align 1 dereferenceable(14) @.str.12)
  br label %_ZN5arrow8internalL16CheckSliceParamsElllPKc.exit

if.end6.i:                                        ; preds = %if.end.i
  %0 = tail call { i64, i1 } @llvm.sadd.with.overflow.i64(i64 %offset, i64 %length)
  %1 = extractvalue { i64, i1 } %0, 1
  br i1 %1, label %if.then9.i, label %if.end10.i

if.then9.i:                                       ; preds = %if.end6.i
  call void @_ZN5arrow6Status8FromArgsIJRPKcRA22_S2_EEES0_NS_10StatusCodeEDpOT_(ptr sret(%"class.arrow::Status") align 8 %agg.result, i8 noundef signext 7, ptr noundef nonnull align 8 dereferenceable(8) %object_name.addr.i, ptr noundef nonnull align 1 dereferenceable(22) @.str.13)
  br label %_ZN5arrow8internalL16CheckSliceParamsElllPKc.exit

if.end10.i:                                       ; preds = %if.end6.i
  %2 = extractvalue { i64, i1 } %0, 0
  %cmp11.i = icmp sgt i64 %2, %buffer.24.val
  br i1 %cmp11.i, label %if.then14.i, label %if.end15.i

if.then14.i:                                      ; preds = %if.end10.i
  call void @llvm.lifetime.start.p0(i64 32, ptr nonnull %ref.tmp.i.i.i), !noalias !36
  call void @_ZN5arrow4util13StringBuilderIJRPKcRA21_S2_S4_RA8_S2_EEENSt7__cxx1112basic_stringIcSt11char_traitsIcESaIcEEEDpOT_(ptr nonnull sret(%"class.std::__cxx11::basic_string") align 8 %ref.tmp.i.i.i, ptr noundef nonnull align 8 dereferenceable(8) %object_name.addr.i, ptr noundef nonnull align 1 dereferenceable(21) @.str.14, ptr noundef nonnull align 8 dereferenceable(8) %object_name.addr.i, ptr noundef nonnull align 1 dereferenceable(8) @.str.15), !noalias !39
  invoke void @_ZN5arrow6StatusC1ENS_10StatusCodeERKNSt7__cxx1112basic_stringIcSt11char_traitsIcESaIcEEE(ptr noundef nonnull align 8 dereferenceable(8) %agg.result, i8 noundef signext 7, ptr noundef nonnull align 8 dereferenceable(32) %ref.tmp.i.i.i)
          to label %_ZN5arrow6Status10IndexErrorIJRPKcRA21_S2_S4_RA8_S2_EEES0_DpOT_.exit.i unwind label %lpad.i.i.i

lpad.i.i.i:                                       ; preds = %if.then14.i
  %3 = landingpad { ptr, i32 }
          cleanup
  call void @_ZNSt7__cxx1112basic_stringIcSt11char_traitsIcESaIcEED1Ev(ptr noundef nonnull align 8 dereferenceable(32) %ref.tmp.i.i.i) #16
  resume { ptr, i32 } %3

_ZN5arrow6Status10IndexErrorIJRPKcRA21_S2_S4_RA8_S2_EEES0_DpOT_.exit.i: ; preds = %if.then14.i
  call void @_ZNSt7__cxx1112basic_stringIcSt11char_traitsIcESaIcEED1Ev(ptr noundef nonnull align 8 dereferenceable(32) %ref.tmp.i.i.i) #16
  call void @llvm.lifetime.end.p0(i64 32, ptr nonnull %ref.tmp.i.i.i), !noalias !36
  br label %_ZN5arrow8internalL16CheckSliceParamsElllPKc.exit

if.end15.i:                                       ; preds = %if.end10.i
  store ptr null, ptr %agg.result, align 8, !alias.scope !42
  br label %_ZN5arrow8internalL16CheckSliceParamsElllPKc.exit

_ZN5arrow8internalL16CheckSliceParamsElllPKc.exit: ; preds = %if.then.i, %if.then5.i, %if.then9.i, %_ZN5arrow6Status10IndexErrorIJRPKcRA21_S2_S4_RA8_S2_EEES0_DpOT_.exit.i, %if.end15.i
  call void @llvm.lifetime.end.p0(i64 8, ptr nonnull %object_name.addr.i)
  ret void
}